target datalayout = "e-m:e-p270:32:32-p271:32:32-p272:64:64-i64:64-i128:128-f80:128-n8:16:32:64-S128"
target triple = "x86_64-pc-linux-gnu"

%"class.std::filesystem::__cxx11::path" = type { %"class.std::__cxx11::basic_string", %"struct.std::filesystem::__cxx11::path::_List" }
%"class.std::__cxx11::basic_string" = type { %"struct.std::__cxx11::basic_string<char>::_Alloc_hider", i64, %union.anon }
%"struct.std::__cxx11::basic_string<char>::_Alloc_hider" = type { ptr }
%union.anon = type { i64, [8 x i8] }
%"struct.std::filesystem::__cxx11::path::_List" = type { %"class.std::unique_ptr" }
%"class.std::unique_ptr" = type { %"struct.std::__uniq_ptr_data" }
%"struct.std::__uniq_ptr_data" = type { %"class.std::__uniq_ptr_impl" }
%"class.std::__uniq_ptr_impl" = type { %"class.std::tuple" }
%"class.std::tuple" = type { %"struct.std::_Tuple_impl" }
%"struct.std::_Tuple_impl" = type { %"struct.std::_Head_base.1" }
%"struct.std::_Head_base.1" = type { ptr }
%"class.gmx::SimulationInput" = type { %"class.std::__cxx11::basic_string", %"class.std::__cxx11::basic_string" }

; Function Attrs: mustprogress nounwind uwtable
define available_externally noundef ptr @_ZNKSt7__cxx1112basic_stringIcSt11char_traitsIcESaIcEE7_M_dataEv(ptr noundef nonnull align 8 dereferenceable(32) %0) #4 align 2 {
  %2 = alloca ptr, align 8
  store ptr %0, ptr %2, align 8, !tbaa !19
  %3 = load ptr, ptr %2, align 8
  %4 = getelementptr inbounds nuw %"class.std::__cxx11::basic_string", ptr %3, i32 0, i32 0
  %5 = getelementptr inbounds nuw %"struct.std::__cxx11::basic_string<char>::_Alloc_hider", ptr %4, i32 0, i32 0
  %6 = load ptr, ptr %5, align 8, !tbaa !55
  ret ptr %6
}

; Function Attrs: mustprogress nounwind uwtable
define available_externally noundef ptr @_ZNKSt7__cxx1112basic_stringIcSt11char_traitsIcESaIcEE5c_strEv(ptr noundef nonnull align 8 dereferenceable(32) %0) #4 align 2 {
  %2 = alloca ptr, align 8
  store ptr %0, ptr %2, align 8, !tbaa !19
  %3 = load ptr, ptr %2, align 8
  %4 = call noundef ptr @_ZNKSt7__cxx1112basic_stringIcSt11char_traitsIcESaIcEE7_M_dataEv(ptr noundef nonnull align 8 dereferenceable(32) %3)
  ret ptr %4
}

; Function Attrs: mustprogress uwtable
define void @_ZN3gmx15applyLocalStateERKNS_15SimulationInputEP8t_fileioPK9t_commrecPiP10t_inputrecP7t_stateP18ObservablesHistorybRKNS_18MDModulesNotifiersEPNS_24ReadCheckpointDataHolderEb(ptr noundef nonnull align 8 dereferenceable(64) %0, ptr noundef %1, ptr noundef %2, ptr noundef %3, ptr noundef %4, ptr noundef %5, ptr noundef %6, i1 noundef zeroext %7, ptr noundef nonnull align 8 dereferenceable(720) %8, ptr noundef %9, i1 noundef zeroext %10) #0 personality ptr @__gxx_personality_v0 {
  %12 = alloca ptr, align 8
  %13 = alloca ptr, align 8
  %14 = alloca ptr, align 8
  %15 = alloca ptr, align 8
  %16 = alloca ptr, align 8
  %17 = alloca ptr, align 8
  %18 = alloca ptr, align 8
  %19 = alloca i8, align 1
  %20 = alloca ptr, align 8
  %21 = alloca ptr, align 8
  %22 = alloca i8, align 1
  %23 = alloca %"class.std::filesystem::__cxx11::path", align 8
  %24 = alloca ptr, align 8
  %25 = alloca ptr, align 8
  %26 = alloca i32, align 4
  store ptr %0, ptr %12, align 8, !tbaa !4
  store ptr %1, ptr %13, align 8, !tbaa !100
  store ptr %2, ptr %14, align 8, !tbaa !102
  store ptr %3, ptr %15, align 8, !tbaa !104
  store ptr %4, ptr %16, align 8, !tbaa !13
  store ptr %5, ptr %17, align 8, !tbaa !11
  store ptr %6, ptr %18, align 8, !tbaa !106
  %27 = zext i1 %7 to i8
  store i8 %27, ptr %19, align 1, !tbaa !24
  store ptr %8, ptr %20, align 8, !tbaa !108
  store ptr %9, ptr %21, align 8, !tbaa !110
  %28 = zext i1 %10 to i8
  store i8 %28, ptr %22, align 1, !tbaa !24
  call void @llvm.lifetime.start.p0(i64 40, ptr %23) #12
  call void @llvm.lifetime.start.p0(i64 8, ptr %24) #12
  %29 = load ptr, ptr %12, align 8, !tbaa !4
  %30 = getelementptr inbounds nuw %"class.gmx::SimulationInput", ptr %29, i32 0, i32 1
  %31 = call noundef ptr @_ZNKSt7__cxx1112basic_stringIcSt11char_traitsIcESaIcEE5c_strEv(ptr noundef nonnull align 8 dereferenceable(32) %30) #12
  store ptr %31, ptr %24, align 8, !tbaa !42
  call void @_ZNSt10filesystem7__cxx114pathC2IPKcS1_EERKT_NS1_6formatE(ptr noundef nonnull align 8 dereferenceable(40) %23, ptr noundef nonnull align 8 dereferenceable(8) %24, i8 noundef zeroext 2)
  %32 = load ptr, ptr %13, align 8, !tbaa !100
  %33 = load ptr, ptr %14, align 8, !tbaa !102
  %34 = load ptr, ptr %15, align 8, !tbaa !104
  %35 = load ptr, ptr %16, align 8, !tbaa !13
  %36 = load ptr, ptr %17, align 8, !tbaa !11
  %37 = load ptr, ptr %18, align 8, !tbaa !106
  %38 = load i8, ptr %19, align 1, !tbaa !24, !range !112, !noundef !113
  %39 = trunc i8 %38 to i1
  %40 = load ptr, ptr %20, align 8, !tbaa !108
  %41 = load ptr, ptr %21, align 8, !tbaa !110
  %42 = load i8, ptr %22, align 1, !tbaa !24, !range !112, !noundef !113
  %43 = trunc i8 %42 to i1
  invoke void @_Z15load_checkpointRKNSt10filesystem7__cxx114pathEP8t_fileioPK9t_commrecPKiP10t_inputrecP7t_stateP18ObservablesHistorybRKN3gmx18MDModulesNotifiersEPNSH_24ReadCheckpointDataHolderEb(ptr noundef nonnull align 8 dereferenceable(40) %23, ptr noundef %32, ptr noundef %33, ptr noundef %34, ptr noundef %35, ptr noundef %36, ptr noundef %37, i1 noundef zeroext %39, ptr noundef nonnull align 8 dereferenceable(720) %40, ptr noundef %41, i1 noundef zeroext %43)
          to label %44 unwind label %45

44:                                               ; preds = %11
  call void @_ZNSt10filesystem7__cxx114pathD2Ev(ptr noundef nonnull align 8 dereferenceable(40) %23) #12
  call void @llvm.lifetime.end.p0(i64 8, ptr %24) #12
  call void @llvm.lifetime.end.p0(i64 40, ptr %23) #12
  ret void

45:                                               ; preds = %11
  %46 = landingpad { ptr, i32 }
          cleanup
  %47 = extractvalue { ptr, i32 } %46, 0
  store ptr %47, ptr %25, align 8
  %48 = extractvalue { ptr, i32 } %46, 1
  store i32 %48, ptr %26, align 4
  call void @_ZNSt10filesystem7__cxx114pathD2Ev(ptr noundef nonnull align 8 dereferenceable(40) %23) #12
  call void @llvm.lifetime.end.p0(i64 8, ptr %24) #12
  call void @llvm.lifetime.end.p0(i64 40, ptr %23) #12
  br label %49

49:                                               ; preds = %45
  %50 = load ptr, ptr %25, align 8
  %51 = load i32, ptr %26, align 4
  %52 = insertvalue { ptr, i32 } poison, ptr %50, 0
  %53 = insertvalue { ptr, i32 } %52, i32 %51, 1
  resume { ptr, i32 } %53
}