; Function Attrs: mustprogress uwtable
define void @_ZN3gmx15applyLocalStateERKNS_15SimulationInputEP8t_fileioPK9t_commrecPiP10t_inputrecP7t_stateP18ObservablesHistorybRKNS_18MDModulesNotifiersEPNS_24ReadCheckpointDataHolderEb(ptr noundef nonnull readonly align 8 captures(none) dereferenceable(64) %0, ptr noundef %1, ptr noundef %2, ptr noundef %3, ptr noundef %4, ptr noundef %5, ptr noundef %6, i1 noundef zeroext %7, ptr noundef nonnull align 8 dereferenceable(720) %8, ptr noundef %9, i1 noundef zeroext %10) local_unnamed_addr #0 personality ptr @__gxx_personality_v0 {
  %12 = alloca %"class.std::filesystem::__cxx11::path", align 8
  %13 = alloca ptr, align 8
  call void @llvm.lifetime.start.p0(i64 40, ptr nonnull %12) #11
  call void @llvm.lifetime.start.p0(i64 8, ptr nonnull %13) #11
  %14 = getelementptr inbounds nuw i8, ptr %0, i64 32
  %15 = load ptr, ptr %14, align 8, !tbaa !30
  store ptr %15, ptr %13, align 8, !tbaa !36
  call void @_ZNSt10filesystem7__cxx114pathC2IPKcS1_EERKT_NS1_6formatE(ptr noundef nonnull align 8 dereferenceable(40) %12, ptr noundef nonnull align 8 dereferenceable(8) %13, i8 noundef zeroext 2)
  invoke void @_Z15load_checkpointRKNSt10filesystem7__cxx114pathEP8t_fileioPK9t_commrecPKiP10t_inputrecP7t_stateP18ObservablesHistorybRKN3gmx18MDModulesNotifiersEPNSH_24ReadCheckpointDataHolderEb(ptr noundef nonnull align 8 dereferenceable(40) %12, ptr noundef %1, ptr noundef %2, ptr noundef %3, ptr noundef %4, ptr noundef %5, ptr noundef %6, i1 noundef zeroext %7, ptr noundef nonnull align 8 dereferenceable(720) %8, ptr noundef %9, i1 noundef zeroext %10)
          to label %16 unwind label %28

16:                                               ; preds = %11
  %17 = getelementptr inbounds nuw i8, ptr %12, i64 32
  %18 = load ptr, ptr %17, align 8, !tbaa !28
  %.not.i.i.i = icmp eq ptr %18, null
  br i1 %.not.i.i.i, label %_ZNSt10filesystem7__cxx114path5_ListD2Ev.exit.i, label %19

19:                                               ; preds = %16
  call void @_ZNKSt10filesystem7__cxx114path5_List13_Impl_deleterclEPNS2_5_ImplE(ptr noundef nonnull align 8 dereferenceable(8) %17, ptr noundef nonnull %18) #11
  br label %_ZNSt10filesystem7__cxx114path5_ListD2Ev.exit.i

_ZNSt10filesystem7__cxx114path5_ListD2Ev.exit.i:  ; preds = %19, %16
  store ptr null, ptr %17, align 8, !tbaa !28
  %20 = load ptr, ptr %12, align 8, !tbaa !30
  %21 = getelementptr inbounds nuw i8, ptr %12, i64 16
  %22 = icmp eq ptr %20, %21
  br i1 %22, label %_ZNKSt7__cxx1112basic_stringIcSt11char_traitsIcESaIcEE11_M_is_localEv.exit.thread.i.i.i, label %_ZNKSt7__cxx1112basic_stringIcSt11char_traitsIcESaIcEE11_M_is_localEv.exit.i.i.i

_ZNKSt7__cxx1112basic_stringIcSt11char_traitsIcESaIcEE11_M_is_localEv.exit.thread.i.i.i: ; preds = %_ZNSt10filesystem7__cxx114path5_ListD2Ev.exit.i
  %23 = getelementptr inbounds nuw i8, ptr %12, i64 8
  %24 = load i64, ptr %23, align 8, !tbaa !33
  %25 = icmp ult i64 %24, 16
  call void @llvm.assume(i1 %25)
  br label %_ZNSt10filesystem7__cxx114pathD2Ev.exit

_ZNKSt7__cxx1112basic_stringIcSt11char_traitsIcESaIcEE11_M_is_localEv.exit.i.i.i: ; preds = %_ZNSt10filesystem7__cxx114path5_ListD2Ev.exit.i
  %26 = load i64, ptr %21, align 8, !tbaa !34
  %27 = add i64 %26, 1
  call void @_ZdlPvm(ptr noundef %20, i64 noundef %27) #12
  br label %_ZNSt10filesystem7__cxx114pathD2Ev.exit

_ZNSt10filesystem7__cxx114pathD2Ev.exit:          ; preds = %_ZNKSt7__cxx1112basic_stringIcSt11char_traitsIcESaIcEE11_M_is_localEv.exit.thread.i.i.i, %_ZNKSt7__cxx1112basic_stringIcSt11char_traitsIcESaIcEE11_M_is_localEv.exit.i.i.i
  call void @llvm.lifetime.end.p0(i64 8, ptr nonnull %13) #11
  call void @llvm.lifetime.end.p0(i64 40, ptr nonnull %12) #11
  ret void

28:                                               ; preds = %11
  %29 = landingpad { ptr, i32 }
          cleanup
  call void @_ZNSt10filesystem7__cxx114pathD2Ev(ptr noundef nonnull align 8 dereferenceable(40) %12) #11
  call void @llvm.lifetime.end.p0(i64 8, ptr nonnull %13) #11
  call void @llvm.lifetime.end.p0(i64 40, ptr nonnull %12) #11
  resume { ptr, i32 } %29
}